; ModuleID = '57/1093.c'
source_filename = "57/1093.c"
target datalayout = "e-m:e-p270:32:32-p271:32:32-p272:64:64-i64:64-f80:128-n8:16:32:64-S128"
target triple = "x86_64-pc-linux-gnu"

@.str = private unnamed_addr constant [3 x i8] c"%d\00", align 1
@.str.1 = private unnamed_addr constant [3 x i8] c"%s\00", align 1
@.str.2 = private unnamed_addr constant [4 x i8] c"%s\0A\00", align 1

; Function Attrs: noinline nounwind uwtable
define dso_local i32 @main() #0 {
  %1 = alloca i32, align 4
  %2 = alloca [50 x [35 x i8]], align 16
  %3 = alloca [50 x [35 x i8]], align 16
  %4 = alloca i32, align 4
  %5 = alloca i32, align 4
  %6 = alloca i32, align 4
  %7 = alloca i32, align 4
  store i32 0, i32* %1, align 4
  %8 = call i32 (i8*, ...) @__isoc99_scanf(i8* getelementptr inbounds ([3 x i8], [3 x i8]* @.str, i64 0, i64 0), i32* %4)
  store i32 0, i32* %6, align 4
  br label %9

9:                                                ; preds = %18, %0
  %10 = load i32, i32* %6, align 4
  %11 = load i32, i32* %4, align 4
  %12 = icmp slt i32 %10, %11
  br i1 %12, label %13, label %21

13:                                               ; preds = %9
  %14 = load i32, i32* %6, align 4
  %15 = sext i32 %14 to i64
  %16 = getelementptr inbounds [50 x [35 x i8]], [50 x [35 x i8]]* %2, i64 0, i64 %15
  %17 = call i32 (i8*, ...) @__isoc99_scanf(i8* getelementptr inbounds ([3 x i8], [3 x i8]* @.str.1, i64 0, i64 0), [35 x i8]* %16)
  br label %18

18:                                               ; preds = %13
  %19 = load i32, i32* %6, align 4
  %20 = add nsw i32 %19, 1
  store i32 %20, i32* %6, align 4
  br label %9

21:                                               ; preds = %9
  store i32 0, i32* %6, align 4
  br label %22

22:                                               ; preds = %167, %21
  %23 = load i32, i32* %6, align 4
  %24 = load i32, i32* %4, align 4
  %25 = icmp slt i32 %23, %24
  br i1 %25, label %26, label %170

26:                                               ; preds = %22
  %27 = load i32, i32* %6, align 4
  %28 = sext i32 %27 to i64
  %29 = getelementptr inbounds [50 x [35 x i8]], [50 x [35 x i8]]* %2, i64 0, i64 %28
  %30 = getelementptr inbounds [35 x i8], [35 x i8]* %29, i64 0, i64 0
  %31 = call i64 @strlen(i8* %30) #3
  %32 = trunc i64 %31 to i32
  store i32 %32, i32* %5, align 4
  store i32 0, i32* %7, align 4
  br label %33

33:                                               ; preds = %57, %26
  %34 = load i32, i32* %6, align 4
  %35 = sext i32 %34 to i64
  %36 = getelementptr inbounds [50 x [35 x i8]], [50 x [35 x i8]]* %2, i64 0, i64 %35
  %37 = load i32, i32* %7, align 4
  %38 = sext i32 %37 to i64
  %39 = getelementptr inbounds [35 x i8], [35 x i8]* %36, i64 0, i64 %38
  %40 = load i8, i8* %39, align 1
  %41 = sext i8 %40 to i32
  %42 = icmp ne i32 %41, 0
  br i1 %42, label %43, label %60

43:                                               ; preds = %33
  %44 = load i32, i32* %6, align 4
  %45 = sext i32 %44 to i64
  %46 = getelementptr inbounds [50 x [35 x i8]], [50 x [35 x i8]]* %2, i64 0, i64 %45
  %47 = load i32, i32* %7, align 4
  %48 = sext i32 %47 to i64
  %49 = getelementptr inbounds [35 x i8], [35 x i8]* %46, i64 0, i64 %48
  %50 = load i8, i8* %49, align 1
  %51 = load i32, i32* %6, align 4
  %52 = sext i32 %51 to i64
  %53 = getelementptr inbounds [50 x [35 x i8]], [50 x [35 x i8]]* %3, i64 0, i64 %52
  %54 = load i32, i32* %7, align 4
  %55 = sext i32 %54 to i64
  %56 = getelementptr inbounds [35 x i8], [35 x i8]* %53, i64 0, i64 %55
  store i8 %50, i8* %56, align 1
  br label %57

57:                                               ; preds = %43
  %58 = load i32, i32* %7, align 4
  %59 = add nsw i32 %58, 1
  store i32 %59, i32* %7, align 4
  br label %33

60:                                               ; preds = %33
  %61 = load i32, i32* %6, align 4
  %62 = sext i32 %61 to i64
  %63 = getelementptr inbounds [50 x [35 x i8]], [50 x [35 x i8]]* %2, i64 0, i64 %62
  %64 = load i32, i32* %5, align 4
  %65 = sub nsw i32 %64, 2
  %66 = sext i32 %65 to i64
  %67 = getelementptr inbounds [35 x i8], [35 x i8]* %63, i64 0, i64 %66
  %68 = load i8, i8* %67, align 1
  %69 = sext i8 %68 to i32
  %70 = icmp eq i32 %69, 108
  br i1 %70, label %71, label %90

71:                                               ; preds = %60
  %72 = load i32, i32* %6, align 4
  %73 = sext i32 %72 to i64
  %74 = getelementptr inbounds [50 x [35 x i8]], [50 x [35 x i8]]* %2, i64 0, i64 %73
  %75 = load i32, i32* %5, align 4
  %76 = sub nsw i32 %75, 1
  %77 = sext i32 %76 to i64
  %78 = getelementptr inbounds [35 x i8], [35 x i8]* %74, i64 0, i64 %77
  %79 = load i8, i8* %78, align 1
  %80 = sext i8 %79 to i32
  %81 = icmp eq i32 %80, 121
  br i1 %81, label %82, label %90

82:                                               ; preds = %71
  %83 = load i32, i32* %6, align 4
  %84 = sext i32 %83 to i64
  %85 = getelementptr inbounds [50 x [35 x i8]], [50 x [35 x i8]]* %3, i64 0, i64 %84
  %86 = load i32, i32* %5, align 4
  %87 = sub nsw i32 %86, 2
  %88 = sext i32 %87 to i64
  %89 = getelementptr inbounds [35 x i8], [35 x i8]* %85, i64 0, i64 %88
  store i8 0, i8* %89, align 1
  br label %90

90:                                               ; preds = %82, %71, %60
  %91 = load i32, i32* %6, align 4
  %92 = sext i32 %91 to i64
  %93 = getelementptr inbounds [50 x [35 x i8]], [50 x [35 x i8]]* %2, i64 0, i64 %92
  %94 = load i32, i32* %5, align 4
  %95 = sub nsw i32 %94, 2
  %96 = sext i32 %95 to i64
  %97 = getelementptr inbounds [35 x i8], [35 x i8]* %93, i64 0, i64 %96
  %98 = load i8, i8* %97, align 1
  %99 = sext i8 %98 to i32
  %100 = icmp eq i32 %99, 101
  br i1 %100, label %101, label %120

101:                                              ; preds = %90
  %102 = load i32, i32* %6, align 4
  %103 = sext i32 %102 to i64
  %104 = getelementptr inbounds [50 x [35 x i8]], [50 x [35 x i8]]* %2, i64 0, i64 %103
  %105 = load i32, i32* %5, align 4
  %106 = sub nsw i32 %105, 1
  %107 = sext i32 %106 to i64
  %108 = getelementptr inbounds [35 x i8], [35 x i8]* %104, i64 0, i64 %107
  %109 = load i8, i8* %108, align 1
  %110 = sext i8 %109 to i32
  %111 = icmp eq i32 %110, 114
  br i1 %111, label %112, label %120

112:                                              ; preds = %101
  %113 = load i32, i32* %6, align 4
  %114 = sext i32 %113 to i64
  %115 = getelementptr inbounds [50 x [35 x i8]], [50 x [35 x i8]]* %3, i64 0, i64 %114
  %116 = load i32, i32* %5, align 4
  %117 = sub nsw i32 %116, 2
  %118 = sext i32 %117 to i64
  %119 = getelementptr inbounds [35 x i8], [35 x i8]* %115, i64 0, i64 %118
  store i8 0, i8* %119, align 1
  br label %120

120:                                              ; preds = %112, %101, %90
  %121 = load i32, i32* %6, align 4
  %122 = sext i32 %121 to i64
  %123 = getelementptr inbounds [50 x [35 x i8]], [50 x [35 x i8]]* %2, i64 0, i64 %122
  %124 = load i32, i32* %5, align 4
  %125 = sub nsw i32 %124, 3
  %126 = sext i32 %125 to i64
  %127 = getelementptr inbounds [35 x i8], [35 x i8]* %123, i64 0, i64 %126
  %128 = load i8, i8* %127, align 1
  %129 = sext i8 %128 to i32
  %130 = icmp eq i32 %129, 105
  br i1 %130, label %131, label %161

131:                                              ; preds = %120
  %132 = load i32, i32* %6, align 4
  %133 = sext i32 %132 to i64
  %134 = getelementptr inbounds [50 x [35 x i8]], [50 x [35 x i8]]* %2, i64 0, i64 %133
  %135 = load i32, i32* %5, align 4
  %136 = sub nsw i32 %135, 2
  %137 = sext i32 %136 to i64
  %138 = getelementptr inbounds [35 x i8], [35 x i8]* %134, i64 0, i64 %137
  %139 = load i8, i8* %138, align 1
  %140 = sext i8 %139 to i32
  %141 = icmp eq i32 %140, 110
  br i1 %141, label %142, label %161

142:                                              ; preds = %131
  %143 = load i32, i32* %6, align 4
  %144 = sext i32 %143 to i64
  %145 = getelementptr inbounds [50 x [35 x i8]], [50 x [35 x i8]]* %2, i64 0, i64 %144
  %146 = load i32, i32* %5, align 4
  %147 = sub nsw i32 %146, 1
  %148 = sext i32 %147 to i64
  %149 = getelementptr inbounds [35 x i8], [35 x i8]* %145, i64 0, i64 %148
  %150 = load i8, i8* %149, align 1
  %151 = sext i8 %150 to i32
  %152 = icmp eq i32 %151, 103
  br i1 %152, label %153, label %161

153:                                              ; preds = %142
  %154 = load i32, i32* %6, align 4
  %155 = sext i32 %154 to i64
  %156 = getelementptr inbounds [50 x [35 x i8]], [50 x [35 x i8]]* %3, i64 0, i64 %155
  %157 = load i32, i32* %5, align 4
  %158 = sub nsw i32 %157, 3
  %159 = sext i32 %158 to i64
  %160 = getelementptr inbounds [35 x i8], [35 x i8]* %156, i64 0, i64 %159
  store i8 0, i8* %160, align 1
  br label %161

161:                                              ; preds = %153, %142, %131, %120
  %162 = load i32, i32* %6, align 4
  %163 = sext i32 %162 to i64
  %164 = getelementptr inbounds [50 x [35 x i8]], [50 x [35 x i8]]* %3, i64 0, i64 %163
  %165 = getelementptr inbounds [35 x i8], [35 x i8]* %164, i64 0, i64 0
  %166 = call i32 (i8*, ...) @printf(i8* getelementptr inbounds ([4 x i8], [4 x i8]* @.str.2, i64 0, i64 0), i8* %165)
  br label %167

167:                                              ; preds = %161
  %168 = load i32, i32* %6, align 4
  %169 = add nsw i32 %168, 1
  store i32 %169, i32* %6, align 4
  br label %22

170:                                              ; preds = %22
  ret i32 0
}

declare dso_local i32 @__isoc99_scanf(i8*, ...) #1

; Function Attrs: nounwind readonly
declare dso_local i64 @strlen(i8*) #2

declare dso_local i32 @printf(i8*, ...) #1


!llvm.module.flags = !{!0}
!llvm.ident = !{!1}

!0 = !{i32 1, !"wchar_size", i32 4}
!1 = !{!"clang version 10.0.0-4ubuntu1 "}
